target datalayout = "e-m:e-p270:32:32-p271:32:32-p272:64:64-i64:64-i128:128-f80:128-n8:16:32:64-S128"
target triple = "x86_64-unknown-linux-gnu"

; Function Attrs: nounwind sspstrong uwtable
define internal i32 @ldl_he_p(ptr noundef %ptr) #0 {
entry:
  %ptr.addr = alloca ptr, align 8
  %r = alloca i32, align 4
  store ptr %ptr, ptr %ptr.addr, align 8
  %0 = load ptr, ptr %ptr.addr, align 8
  call void @llvm.memcpy.p0.p0.i64(ptr align 4 %r, ptr align 1 %0, i64 4, i1 false)
  %1 = load i32, ptr %r, align 4
  ret i32 %1
}

; Function Attrs: nounwind sspstrong uwtable
define internal i32 @lduw_he_p(ptr noundef %ptr) #0 {
entry:
  %ptr.addr = alloca ptr, align 8
  %r = alloca i16, align 2
  store ptr %ptr, ptr %ptr.addr, align 8
  %0 = load ptr, ptr %ptr.addr, align 8
  call void @llvm.memcpy.p0.p0.i64(ptr align 2 %r, ptr align 1 %0, i64 2, i1 false)
  %1 = load i16, ptr %r, align 2
  %conv = zext i16 %1 to i32
  ret i32 %conv
}

; Function Attrs: nounwind sspstrong uwtable
define internal i32 @ldl_be_p(ptr noundef %ptr) #0 {
entry:
  %ptr.addr = alloca ptr, align 8
  store ptr %ptr, ptr %ptr.addr, align 8
  %0 = load ptr, ptr %ptr.addr, align 8
  %call = call i32 @ldl_he_p(ptr noundef %0)
  %1 = call i32 @llvm.bswap.i32(i32 %call)
  ret i32 %1
}

; Function Attrs: nounwind sspstrong uwtable
define internal i32 @lduw_be_p(ptr noundef %ptr) #0 {
entry:
  %ptr.addr = alloca ptr, align 8
  store ptr %ptr, ptr %ptr.addr, align 8
  %0 = load ptr, ptr %ptr.addr, align 8
  %call = call i32 @lduw_he_p(ptr noundef %0)
  %conv = trunc i32 %call to i16
  %1 = call i16 @llvm.bswap.i16(i16 %conv)
  %conv1 = zext i16 %1 to i32
  ret i32 %conv1
}

; Function Attrs: nounwind sspstrong uwtable
define dso_local i32 @scsi_cdb_xfer(ptr noundef %buf) #0 {
entry:
  %retval = alloca i32, align 4
  %buf.addr = alloca ptr, align 8
  store ptr %buf, ptr %buf.addr, align 8
  %0 = load ptr, ptr %buf.addr, align 8
  %arrayidx = getelementptr i8, ptr %0, i64 0
  %1 = load i8, ptr %arrayidx, align 1
  %conv = zext i8 %1 to i32
  %shr = ashr i32 %conv, 5
  switch i32 %shr, label %sw.default [
    i32 0, label %sw.bb
    i32 1, label %sw.bb3
    i32 2, label %sw.bb3
    i32 4, label %sw.bb5
    i32 5, label %sw.bb10
  ]

sw.bb:                                            ; preds = %entry
  %2 = load ptr, ptr %buf.addr, align 8
  %arrayidx1 = getelementptr i8, ptr %2, i64 4
  %3 = load i8, ptr %arrayidx1, align 1
  %conv2 = zext i8 %3 to i32
  store i32 %conv2, ptr %retval, align 4
  br label %return

sw.bb3:                                           ; preds = %entry, %entry
  %4 = load ptr, ptr %buf.addr, align 8
  %arrayidx4 = getelementptr i8, ptr %4, i64 7
  %call = call i32 @lduw_be_p(ptr noundef %arrayidx4)
  store i32 %call, ptr %retval, align 4
  br label %return

sw.bb5:                                           ; preds = %entry
  %5 = load ptr, ptr %buf.addr, align 8
  %arrayidx6 = getelementptr i8, ptr %5, i64 10
  %call7 = call i32 @ldl_be_p(ptr noundef %arrayidx6)
  %conv8 = sext i32 %call7 to i64
  %and = and i64 %conv8, 4294967295
  %conv9 = trunc i64 %and to i32
  store i32 %conv9, ptr %retval, align 4
  br label %return

sw.bb10:                                          ; preds = %entry
  %6 = load ptr, ptr %buf.addr, align 8
  %arrayidx11 = getelementptr i8, ptr %6, i64 6
  %call12 = call i32 @ldl_be_p(ptr noundef %arrayidx11)
  %conv13 = sext i32 %call12 to i64
  %and14 = and i64 %conv13, 4294967295
  %conv15 = trunc i64 %and14 to i32
  store i32 %conv15, ptr %retval, align 4
  br label %return

sw.default:                                       ; preds = %entry
  store i32 -1, ptr %retval, align 4
  br label %return

return:                                           ; preds = %sw.default, %sw.bb10, %sw.bb5, %sw.bb3, %sw.bb
  %7 = load i32, ptr %retval, align 4
  ret i32 %7
}

; Function Attrs: nounwind sspstrong uwtable
define dso_local i32 @scsi_data_cdb_xfer(ptr noundef %buf) #0 {
entry:
  %retval = alloca i32, align 4
  %buf.addr = alloca ptr, align 8
  store ptr %buf, ptr %buf.addr, align 8
  %0 = load ptr, ptr %buf.addr, align 8
  %arrayidx = getelementptr i8, ptr %0, i64 0
  %1 = load i8, ptr %arrayidx, align 1
  %conv = zext i8 %1 to i32
  %shr = ashr i32 %conv, 5
  %cmp = icmp eq i32 %shr, 0
  br i1 %cmp, label %land.lhs.true, label %if.else

land.lhs.true:                                    ; preds = %entry
  %2 = load ptr, ptr %buf.addr, align 8
  %arrayidx2 = getelementptr i8, ptr %2, i64 4
  %3 = load i8, ptr %arrayidx2, align 1
  %conv3 = zext i8 %3 to i32
  %cmp4 = icmp eq i32 %conv3, 0
  br i1 %cmp4, label %if.then, label %if.else

if.then:                                          ; preds = %land.lhs.true
  store i32 256, ptr %retval, align 4
  br label %return

if.else:                                          ; preds = %land.lhs.true, %entry
  %4 = load ptr, ptr %buf.addr, align 8
  %call = call i32 @scsi_cdb_xfer(ptr noundef %4)
  store i32 %call, ptr %retval, align 4
  br label %return

return:                                           ; preds = %if.else, %if.then
  %5 = load i32, ptr %retval, align 4
  ret i32 %5
}