; Function Attrs: mustprogress nofree norecurse nosync nounwind sspstrong willreturn memory(argmem: read) uwtable
define dso_local i32 @scsi_data_cdb_xfer(ptr noundef readonly captures(none) %buf) local_unnamed_addr #0 {
entry:
  %0 = load i8, ptr %buf, align 1
  %cmp = icmp ult i8 %0, 32
  br i1 %cmp, label %land.lhs.true, label %if.else

land.lhs.true:                                    ; preds = %entry
  %arrayidx2 = getelementptr i8, ptr %buf, i64 4
  %1 = load i8, ptr %arrayidx2, align 1
  %cmp4 = icmp eq i8 %1, 0
  br i1 %cmp4, label %return, label %if.else

if.else:                                          ; preds = %land.lhs.true, %entry
  %2 = lshr i8 %0, 5
  switch i8 %2, label %return [
    i8 0, label %sw.bb.i
    i8 1, label %sw.bb3.i
    i8 2, label %sw.bb3.i
    i8 4, label %sw.bb5.i
    i8 5, label %sw.bb10.i
  ]

sw.bb.i:                                          ; preds = %if.else
  %arrayidx1.i = getelementptr i8, ptr %buf, i64 4
  %3 = load i8, ptr %arrayidx1.i, align 1
  %conv2.i = zext i8 %3 to i32
  br label %return

sw.bb3.i:                                         ; preds = %if.else, %if.else
  %arrayidx4.i = getelementptr i8, ptr %buf, i64 7
  %arrayidx4.val.i = load i16, ptr %arrayidx4.i, align 1
  %4 = tail call i16 @llvm.bswap.i16(i16 %arrayidx4.val.i)
  %conv1.i.i = zext i16 %4 to i32
  br label %return

sw.bb5.i:                                         ; preds = %if.else
  %arrayidx6.i = getelementptr i8, ptr %buf, i64 10
  %arrayidx6.val.i = load i32, ptr %arrayidx6.i, align 1
  %5 = tail call i32 @llvm.bswap.i32(i32 %arrayidx6.val.i)
  br label %return

sw.bb10.i:                                        ; preds = %if.else
  %arrayidx11.i = getelementptr i8, ptr %buf, i64 6
  %arrayidx11.val.i = load i32, ptr %arrayidx11.i, align 1
  %6 = tail call i32 @llvm.bswap.i32(i32 %arrayidx11.val.i)
  br label %return

return:                                           ; preds = %sw.bb10.i, %sw.bb5.i, %sw.bb3.i, %sw.bb.i, %if.else, %land.lhs.true
  %retval.0 = phi i32 [ 256, %land.lhs.true ], [ %6, %sw.bb10.i ], [ %5, %sw.bb5.i ], [ %conv1.i.i, %sw.bb3.i ], [ %conv2.i, %sw.bb.i ], [ -1, %if.else ]
  ret i32 %retval.0
}